; Function Attrs: nofree norecurse nosync nounwind memory(argmem: readwrite) uwtable
define internal void @Copy4x4_C(ptr noalias noundef readonly captures(none) %0, ptr noalias noundef writeonly captures(none) %1) #0 {
  br label %3

3:                                                ; preds = %3, %2
  %.011.i = phi i32 [ 0, %2 ], [ %7, %3 ]
  %.0710.i = phi ptr [ %0, %2 ], [ %5, %3 ]
  %.089.i = phi ptr [ %1, %2 ], [ %6, %3 ]
  %4 = load i32, ptr %.0710.i, align 1, !alias.scope !276
  store i32 %4, ptr %.089.i, align 1, !alias.scope !276
  %5 = getelementptr inbounds nuw i8, ptr %.0710.i, i64 32
  %6 = getelementptr inbounds nuw i8, ptr %.089.i, i64 32
  %7 = add nuw nsw i32 %.011.i, 1
  %exitcond.not.i = icmp eq i32 %7, 4
  br i1 %exitcond.not.i, label %Copy.exit, label %3, !llvm.loop !280

Copy.exit:                                        ; preds = %3
  ret void
}